(lp0
(dp1
(S'bro'
p2
S'ciscoasa'
p3
S'ciscovpn'
p4
S'pan'
p5
S'suricata'
p6
tp7
(dp8
s(g2
g4
g5
g6
tp9
(dp10
s(g2
g3
g4
g5
tp11
(dp12
s(g4
g5
g6
tp13
(dp14
s(g3
g6
tp15
(dp16
s(g3
g5
tp17
(dp18
s(g2
g4
tp19
(dp20
s(g3
g5
g6
tp21
(dp22
s(g3
g4
g6
tp23
(dp24
s(g2
g5
tp25
(dp26
s(g2
g3
tp27
(dp28
s(g2
g3
g6
tp29
(dp30
s(g2
g6
tp31
(dp32
s(g4
g5
tp33
(dp34
s(g2
g3
g5
tp35
(dp36
s(g2
g5
g6
tp37
(dp38
s(g5
g6
tp39
(dp40
s(g2
g4
g5
tp41
(dp42
s(g4
g6
tp43
(dp44
s(g2
g3
g4
g6
tp45
(dp46
s(g2
g4
g6
tp47
(dp48
s(g2
g3
g4
tp49
(dp50
s(g2
g3
g5
g6
tp51
(dp52
s(g3
g4
g5
tp53
(dp54
s(g3
g4
tp55
(dp56
s(g3
g4
g5
g6
tp57
(dp58
sa(dp59
(g2
g3
g4
g5
g6
tp60
(dp61
s(g2
g4
g5
g6
tp62
(dp63
s(g2
g3
g4
g5
tp64
(dp65
s(g4
g5
g6
tp66
(dp67
s(g3
g6
tp68
(dp69
s(g3
g5
tp70
(dp71
s(g2
g4
tp72
(dp73
s(g3
g5
g6
tp74
(dp75
s(g3
g4
g6
tp76
(dp77
s(g2
g5
tp78
(dp79
s(g2
g3
tp80
(dp81
s(g2
g3
g6
tp82
(dp83
s(g2
g6
tp84
(dp85
s(g4
g5
tp86
(dp87
s(g2
g3
g5
tp88
(dp89
s(g2
g5
g6
tp90
(dp91
s(g5
g6
tp92
(dp93
s(g2
g4
g5
tp94
(dp95
s(g4
g6
tp96
(dp97
s(g2
g3
g4
g6
tp98
(dp99
s(g2
g4
g6
tp100
(dp101
s(g2
g3
g4
tp102
(dp103
s(g2
g3
g5
g6
tp104
(dp105
s(g3
g4
g5
tp106
(dp107
s(g3
g4
tp108
(dp109
s(g3
g4
g5
g6
tp110
(dp111
sa(dp112
(g2
g4
tp113
(dp114
s(g4
g5
tp115
(dp116
s(g2
g3
g5
tp117
(dp118
s(g2
g5
tp119
(dp120
s(g2
g3
g4
tp121
(dp122
s(g2
g3
tp123
(dp124
s(g3
g4
g5
tp125
(dp126
s(g2
g4
g5
tp127
(dp128
s(g3
g4
tp129
(dp130
s(g2
g3
g4
g5
tp131
(dp132
s(g3
g5
tp133
(dp134
sa(dp135
(g2
g4
tp136
(dp137
s(g4
g5
tp138
(dp139
s(g2
g3
g5
tp140
(dp141
s(g2
g5
tp142
(dp143
s(g2
g3
g4
tp144
(dp145
s(g2
g3
tp146
(dp147
s(g3
g4
g5
tp148
(dp149
s(g2
g4
g5
tp150
(dp151
s(g3
g4
tp152
(dp153
s(g2
g3
g4
g5
tp154
(dp155
s(g3
g5
tp156
(dp157
sa(dp158
(g2
g4
tp159
(dp160
s(g4
g5
tp161
(dp162
s(g2
g3
g5
tp163
(dp164
s(g2
g5
tp165
(dp166
s(g2
g3
g4
tp167
(dp168
s(g2
g3
tp169
(dp170
s(g3
g4
g5
tp171
(dp172
s(g2
g4
g5
tp173
(dp174
s(g3
g4
tp175
(dp176
s(g2
g3
g4
g5
tp177
(dp178
s(g3
g5
tp179
(dp180
sa(dp181
(g2
g4
tp182
(dp183
s(g4
g5
tp184
(dp185
s(g2
g3
g5
tp186
(dp187
s(g2
g5
tp188
(dp189
s(g2
g3
g4
tp190
(dp191
s(g2
g3
tp192
(dp193
s(g3
g4
g5
tp194
(dp195
s(g2
g4
g5
tp196
(dp197
s(g3
g4
tp198
(dp199
s(g2
g3
g4
g5
tp200
(dp201
s(g3
g5
tp202
(dp203
sa(dp204
(g2
g4
tp205
(dp206
s(g4
g5
tp207
(dp208
s(g2
g3
g5
tp209
(dp210
s(g2
g5
tp211
(dp212
s(g2
g3
g4
tp213
(dp214
s(g2
g3
tp215
(dp216
s(g3
g4
g5
tp217
(dp218
s(g2
g4
g5
tp219
(dp220
s(g3
g4
tp221
(dp222
s(g2
g3
g4
g5
tp223
(dp224
s(g3
g5
tp225
(dp226
sa(dp227
(g2
g4
tp228
(dp229
s(g4
g5
tp230
(dp231
s(g2
g3
g5
tp232
(dp233
s(g2
g5
tp234
(dp235
s(g2
g3
g4
tp236
(dp237
s(g2
g3
tp238
(dp239
s(g3
g4
g5
tp240
(dp241
s(g2
g4
g5
tp242
(dp243
s(g3
g4
tp244
(dp245
s(g2
g3
g4
g5
tp246
(dp247
s(g3
g5
tp248
(dp249
sa(dp250
(g2
g4
tp251
(dp252
s(g4
g5
tp253
(dp254
s(g2
g3
g5
tp255
(dp256
s(g2
g5
tp257
(dp258
s(g2
g3
g4
tp259
(dp260
s(g2
g3
tp261
(dp262
s(g3
g4
g5
tp263
(dp264
s(g2
g4
g5
tp265
(dp266
s(g3
g4
tp267
(dp268
s(g2
g3
g4
g5
tp269
(dp270
s(g3
g5
tp271
(dp272
sa(dp273
(g2
g4
tp274
(dp275
s(g4
g5
tp276
(dp277
s(g2
g3
g5
tp278
(dp279
s(g2
g5
tp280
(dp281
s(g2
g3
g4
tp282
(dp283
s(g2
g3
tp284
(dp285
s(g3
g4
g5
tp286
(dp287
s(g2
g4
g5
tp288
(dp289
s(g3
g4
tp290
(dp291
s(g2
g3
g4
g5
tp292
(dp293
s(g3
g5
tp294
(dp295
sa(dp296
(g2
g4
tp297
(dp298
s(g4
g5
tp299
(dp300
s(g2
g3
g5
tp301
(dp302
s(g2
g5
tp303
(dp304
s(g2
g3
g4
tp305
(dp306
s(g2
g3
tp307
(dp308
s(g3
g4
g5
tp309
(dp310
s(g2
g4
g5
tp311
(dp312
s(g3
g4
tp313
(dp314
s(g2
g3
g4
g5
tp315
(dp316
s(g3
g5
tp317
(dp318
sa(dp319
(g2
g4
tp320
(dp321
s(g4
g5
tp322
(dp323
s(g2
g3
g5
tp324
(dp325
s(g2
g5
tp326
(dp327
s(g2
g3
g4
tp328
(dp329
s(g2
g3
tp330
(dp331
s(g3
g4
g5
tp332
(dp333
s(g2
g4
g5
tp334
(dp335
s(g3
g4
tp336
(dp337
s(g2
g3
g4
g5
tp338
(dp339
s(g3
g5
tp340
(dp341
sa(dp342
(g2
g4
tp343
(dp344
s(g4
g5
tp345
(dp346
s(g2
g3
g5
tp347
(dp348
s(g2
g5
tp349
(dp350
s(g2
g3
g4
tp351
(dp352
s(g2
g3
tp353
(dp354
s(g3
g4
g5
tp355
(dp356
s(g2
g4
g5
tp357
(dp358
s(g3
g4
tp359
(dp360
s(g2
g3
g4
g5
tp361
(dp362
s(g3
g5
tp363
(dp364
sa(dp365
(g2
g4
tp366
(dp367
s(g4
g5
tp368
(dp369
s(g2
g3
g5
tp370
(dp371
s(g2
g5
tp372
(dp373
s(g2
g3
g4
tp374
(dp375
s(g2
g3
tp376
(dp377
s(g3
g4
g5
tp378
(dp379
s(g2
g4
g5
tp380
(dp381
s(g3
g4
tp382
(dp383
s(g2
g3
g4
g5
tp384
(dp385
s(g3
g5
tp386
(dp387
sa(dp388
(g2
g4
tp389
(dp390
s(g4
g5
tp391
(dp392
s(g2
g3
g5
tp393
(dp394
s(g2
g5
tp395
(dp396
s(g2
g3
g4
tp397
(dp398
s(g2
g3
tp399
(dp400
s(g3
g4
g5
tp401
(dp402
s(g2
g4
g5
tp403
(dp404
s(g3
g4
tp405
(dp406
s(g2
g3
g4
g5
tp407
(dp408
s(g3
g5
tp409
(dp410
sa(dp411
(g2
g4
tp412
(dp413
s(g4
g5
tp414
(dp415
s(g2
g3
g5
tp416
(dp417
s(g2
g5
tp418
(dp419
s(g2
g3
g4
tp420
(dp421
s(g2
g3
tp422
(dp423
s(g3
g4
g5
tp424
(dp425
s(g2
g4
g5
tp426
(dp427
s(g3
g4
tp428
(dp429
s(g2
g3
g4
g5
tp430
(dp431
s(g3
g5
tp432
(dp433
sa(dp434
(g2
g4
tp435
(dp436
s(g4
g5
tp437
(dp438
s(g2
g3
g5
tp439
(dp440
s(g2
g5
tp441
(dp442
s(g2
g3
g4
tp443
(dp444
s(g2
g3
tp445
(dp446
s(g3
g4
g5
tp447
(dp448
s(g2
g4
g5
tp449
(dp450
s(g3
g4
tp451
(dp452
s(g2
g3
g4
g5
tp453
(dp454
s(g3
g5
tp455
(dp456
sa(dp457
(g2
g4
tp458
(dp459
s(g4
g5
tp460
(dp461
s(g2
g3
g5
tp462
(dp463
s(g2
g5
tp464
(dp465
s(g2
g3
g4
tp466
(dp467
s(g2
g3
tp468
(dp469
s(g3
g4
g5
tp470
(dp471
s(g2
g4
g5
tp472
(dp473
s(g3
g4
tp474
(dp475
s(g2
g3
g4
g5
tp476
(dp477
s(g3
g5
tp478
(dp479
sa(dp480
(g2
g4
tp481
(dp482
s(g4
g5
tp483
(dp484
s(g2
g3
g5
tp485
(dp486
s(g2
g5
tp487
(dp488
s(g2
g3
g4
tp489
(dp490
s(g2
g3
tp491
(dp492
s(g3
g4
g5
tp493
(dp494
s(g2
g4
g5
tp495
(dp496
s(g3
g4
tp497
(dp498
s(g2
g3
g4
g5
tp499
(dp500
s(g3
g5
tp501
(dp502
sa(dp503
(g2
g4
tp504
(dp505
s(g4
g5
tp506
(dp507
s(g2
g3
g5
tp508
(dp509
s(g2
g5
tp510
(dp511
s(g2
g3
g4
tp512
(dp513
s(g2
g3
tp514
(dp515
s(g3
g4
g5
tp516
(dp517
s(g2
g4
g5
tp518
(dp519
s(g3
g4
tp520
(dp521
s(g2
g3
g4
g5
tp522
(dp523
s(g3
g5
tp524
(dp525
sa(dp526
(g2
g4
tp527
(dp528
s(g4
g5
tp529
(dp530
s(g2
g3
g5
tp531
(dp532
s(g2
g5
tp533
(dp534
s(g2
g3
g4
tp535
(dp536
s(g2
g3
tp537
(dp538
s(g3
g4
g5
tp539
(dp540
s(g2
g4
g5
tp541
(dp542
s(g3
g4
tp543
(dp544
s(g2
g3
g4
g5
tp545
(dp546
s(g3
g5
tp547
(dp548
sa(dp549
(g2
g4
tp550
(dp551
s(g4
g5
tp552
(dp553
s(g2
g3
g5
tp554
(dp555
s(g2
g5
tp556
(dp557
s(g2
g3
g4
tp558
(dp559
s(g2
g3
tp560
(dp561
s(g3
g4
g5
tp562
(dp563
s(g2
g4
g5
tp564
(dp565
s(g3
g4
tp566
(dp567
s(g2
g3
g4
g5
tp568
(dp569
s(g3
g5
tp570
(dp571
sa(dp572
(g2
g4
tp573
(dp574
s(g4
g5
tp575
(dp576
s(g2
g3
g5
tp577
(dp578
s(g2
g5
tp579
(dp580
s(g2
g3
g4
tp581
(dp582
s(g2
g3
tp583
(dp584
s(g3
g4
g5
tp585
(dp586
s(g2
g4
g5
tp587
(dp588
s(g3
g4
tp589
(dp590
s(g2
g3
g4
g5
tp591
(dp592
s(g3
g5
tp593
(dp594
sa(dp595
(g2
g4
tp596
(dp597
s(g4
g5
tp598
(dp599
s(g2
g3
g5
tp600
(dp601
s(g2
g5
tp602
(dp603
s(g2
g3
g4
tp604
(dp605
s(g2
g3
tp606
(dp607
s(g3
g4
g5
tp608
(dp609
s(g2
g4
g5
tp610
(dp611
s(g3
g4
tp612
(dp613
s(g2
g3
g4
g5
tp614
(dp615
s(g3
g5
tp616
(dp617
sa(dp618
(g2
g4
tp619
(dp620
s(g4
g5
tp621
(dp622
s(g2
g3
g5
tp623
(dp624
s(g2
g5
tp625
(dp626
s(g2
g3
g4
tp627
(dp628
s(g2
g3
tp629
(dp630
s(g3
g4
g5
tp631
(dp632
s(g2
g4
g5
tp633
(dp634
s(g3
g4
tp635
(dp636
s(g2
g3
g4
g5
tp637
(dp638
s(g3
g5
tp639
(dp640
sa(dp641
(g2
g4
tp642
(dp643
s(g4
g5
tp644
(dp645
s(g2
g3
g5
tp646
(dp647
s(g2
g5
tp648
(dp649
s(g2
g3
g4
tp650
(dp651
s(g2
g3
tp652
(dp653
s(g3
g4
g5
tp654
(dp655
s(g2
g4
g5
tp656
(dp657
s(g3
g4
tp658
(dp659
s(g2
g3
g4
g5
tp660
(dp661
s(g3
g5
tp662
(dp663
sa(dp664
(g2
g4
tp665
(dp666
s(g4
g5
tp667
(dp668
s(g2
g3
g5
tp669
(dp670
s(g2
g5
tp671
(dp672
s(g2
g3
g4
tp673
(dp674
s(g2
g3
tp675
(dp676
s(g3
g4
g5
tp677
(dp678
s(g2
g4
g5
tp679
(dp680
s(g3
g4
tp681
(dp682
s(g2
g3
g4
g5
tp683
(dp684
s(g3
g5
tp685
(dp686
sa(dp687
(g2
g4
tp688
(dp689
s(g4
g5
tp690
(dp691
s(g2
g3
g5
tp692
(dp693
s(g2
g5
tp694
(dp695
s(g2
g3
g4
tp696
(dp697
s(g2
g3
tp698
(dp699
s(g3
g4
g5
tp700
(dp701
s(g2
g4
g5
tp702
(dp703
s(g3
g4
tp704
(dp705
s(g2
g3
g4
g5
tp706
(dp707
s(g3
g5
tp708
(dp709
sa(dp710
(g2
g4
tp711
(dp712
s(g4
g5
tp713
(dp714
s(g2
g3
g5
tp715
(dp716
s(g2
g5
tp717
(dp718
s(g2
g3
g4
tp719
(dp720
s(g2
g3
tp721
(dp722
s(g3
g4
g5
tp723
(dp724
s(g2
g4
g5
tp725
(dp726
s(g3
g4
tp727
(dp728
s(g2
g3
g4
g5
tp729
(dp730
s(g3
g5
tp731
(dp732
sa(dp733
(g2
g4
tp734
(dp735
s(g4
g5
tp736
(dp737
s(g2
g3
g5
tp738
(dp739
s(g2
g5
tp740
(dp741
s(g2
g3
g4
tp742
(dp743
s(g2
g3
tp744
(dp745
s(g3
g4
g5
tp746
(dp747
s(g2
g4
g5
tp748
(dp749
s(g3
g4
tp750
(dp751
s(g2
g3
g4
g5
tp752
(dp753
s(g3
g5
tp754
(dp755
sa(dp756
(g2
g4
tp757
(dp758
s(g4
g5
tp759
(dp760
s(g2
g3
g5
tp761
(dp762
s(g2
g5
tp763
(dp764
s(g2
g3
g4
tp765
(dp766
s(g2
g3
tp767
(dp768
s(g3
g4
g5
tp769
(dp770
s(g2
g4
g5
tp771
(dp772
s(g3
g4
tp773
(dp774
s(g2
g3
g4
g5
tp775
(dp776
s(g3
g5
tp777
(dp778
sa(dp779
(g2
g4
tp780
(dp781
s(g4
g5
tp782
(dp783
s(g2
g3
g5
tp784
(dp785
s(g2
g5
tp786
(dp787
s(g2
g3
g4
tp788
(dp789
s(g2
g3
tp790
(dp791
s(g3
g4
g5
tp792
(dp793
s(g2
g4
g5
tp794
(dp795
s(g3
g4
tp796
(dp797
s(g2
g3
g4
g5
tp798
(dp799
s(g3
g5
tp800
(dp801
sa(dp802
(g2
g4
tp803
(dp804
s(g4
g5
tp805
(dp806
s(g2
g3
g5
tp807
(dp808
s(g2
g5
tp809
(dp810
s(g2
g3
g4
tp811
(dp812
s(g2
g3
tp813
(dp814
s(g3
g4
g5
tp815
(dp816
s(g2
g4
g5
tp817
(dp818
s(g3
g4
tp819
(dp820
s(g2
g3
g4
g5
tp821
(dp822
s(g3
g5
tp823
(dp824
sa(dp825
(g2
g4
tp826
(dp827
s(g4
g5
tp828
(dp829
s(g2
g3
g5
tp830
(dp831
s(g2
g5
tp832
(dp833
s(g2
g3
g4
tp834
(dp835
s(g2
g3
tp836
(dp837
s(g3
g4
g5
tp838
(dp839
s(g2
g4
g5
tp840
(dp841
s(g3
g4
tp842
(dp843
s(g2
g3
g4
g5
tp844
(dp845
s(g3
g5
tp846
(dp847
sa(dp848
(g2
g4
tp849
(dp850
s(g4
g5
tp851
(dp852
s(g2
g3
g5
tp853
(dp854
s(g2
g5
tp855
(dp856
s(g2
g3
g4
tp857
(dp858
s(g2
g3
tp859
(dp860
s(g3
g4
g5
tp861
(dp862
s(g2
g4
g5
tp863
(dp864
s(g3
g4
tp865
(dp866
s(g2
g3
g4
g5
tp867
(dp868
s(g3
g5
tp869
(dp870
sa(dp871
(g2
g4
tp872
(dp873
s(g4
g5
tp874
(dp875
s(g2
g3
g5
tp876
(dp877
s(g2
g5
tp878
(dp879
s(g2
g3
g4
tp880
(dp881
s(g2
g3
tp882
(dp883
s(g3
g4
g5
tp884
(dp885
s(g2
g4
g5
tp886
(dp887
s(g3
g4
tp888
(dp889
s(g2
g3
g4
g5
tp890
(dp891
s(g3
g5
tp892
(dp893
sa(dp894
(g2
g4
tp895
(dp896
s(g4
g5
tp897
(dp898
s(g2
g3
g5
tp899
(dp900
s(g2
g5
tp901
(dp902
s(g2
g3
g4
tp903
(dp904
s(g2
g3
tp905
(dp906
s(g3
g4
g5
tp907
(dp908
s(g2
g4
g5
tp909
(dp910
s(g3
g4
tp911
(dp912
s(g2
g3
g4
g5
tp913
(dp914
s(g3
g5
tp915
(dp916
sa(dp917
(g2
g4
tp918
(dp919
s(g4
g5
tp920
(dp921
s(g2
g3
g5
tp922
(dp923
s(g2
g5
tp924
(dp925
s(g2
g3
g4
tp926
(dp927
s(g2
g3
tp928
(dp929
s(g3
g4
g5
tp930
(dp931
s(g2
g4
g5
tp932
(dp933
s(g3
g4
tp934
(dp935
s(g2
g3
g4
g5
tp936
(dp937
s(g3
g5
tp938
(dp939
sa(dp940
(g2
g4
tp941
(dp942
s(g4
g5
tp943
(dp944
s(g2
g3
g5
tp945
(dp946
s(g2
g5
tp947
(dp948
s(g2
g3
g4
tp949
(dp950
s(g2
g3
tp951
(dp952
s(g3
g4
g5
tp953
(dp954
s(g2
g4
g5
tp955
(dp956
s(g3
g4
tp957
(dp958
s(g2
g3
g4
g5
tp959
(dp960
s(g3
g5
tp961
(dp962
sa(dp963
(g2
g4
tp964
(dp965
s(g4
g5
tp966
(dp967
s(g2
g3
g5
tp968
(dp969
s(g2
g5
tp970
(dp971
s(g2
g3
g4
tp972
(dp973
s(g2
g3
tp974
(dp975
s(g3
g4
g5
tp976
(dp977
s(g2
g4
g5
tp978
(dp979
s(g3
g4
tp980
(dp981
s(g2
g3
g4
g5
tp982
(dp983
s(g3
g5
tp984
(dp985
sa.